target datalayout = "e-m:e-p270:32:32-p271:32:32-p272:64:64-i64:64-i128:128-f80:128-n8:16:32:64-S128"
target triple = "x86_64-unknown-linux-gnu"

%"class.QuantLib::MarketModelDiscounter" = type { i64, double }

; Function Attrs: mustprogress uwtable
define noundef double @_ZNK8QuantLib21MarketModelDiscounter14numeraireBondsERKNS_10CurveStateEm(ptr noundef nonnull align 8 dereferenceable(16) %this, ptr noundef nonnull align 8 dereferenceable(64) %curveState, i64 noundef %numeraire) #0 align 2 {
entry:
  %retval = alloca double, align 8
  %this.addr = alloca ptr, align 8
  %curveState.addr = alloca ptr, align 8
  %numeraire.addr = alloca i64, align 8
  %preDF = alloca double, align 8
  %cleanup.dest.slot = alloca i32, align 4
  %postDF = alloca double, align 8
  store ptr %this, ptr %this.addr, align 8, !tbaa !3
  store ptr %curveState, ptr %curveState.addr, align 8, !tbaa !3
  store i64 %numeraire, ptr %numeraire.addr, align 8, !tbaa !17
  %this1 = load ptr, ptr %this.addr, align 8
  call void @llvm.lifetime.start.p0(i64 8, ptr %preDF) #9
  %0 = load ptr, ptr %curveState.addr, align 8, !tbaa !3
  %before_ = getelementptr inbounds nuw %"class.QuantLib::MarketModelDiscounter", ptr %this1, i32 0, i32 0
  %1 = load i64, ptr %before_, align 8, !tbaa !9
  %2 = load i64, ptr %numeraire.addr, align 8, !tbaa !17
  %vtable = load ptr, ptr %0, align 8, !tbaa !18
  %vfn = getelementptr inbounds ptr, ptr %vtable, i64 2
  %3 = load ptr, ptr %vfn, align 8
  %call = call noundef double %3(ptr noundef nonnull align 8 dereferenceable(64) %0, i64 noundef %1, i64 noundef %2)
  store double %call, ptr %preDF, align 8, !tbaa !7
  %beforeWeight_ = getelementptr inbounds nuw %"class.QuantLib::MarketModelDiscounter", ptr %this1, i32 0, i32 1
  %4 = load double, ptr %beforeWeight_, align 8, !tbaa !12
  %cmp = fcmp oeq double %4, 1.000000e+00
  br i1 %cmp, label %if.then, label %if.end

if.then:                                          ; preds = %entry
  %5 = load double, ptr %preDF, align 8, !tbaa !7
  store double %5, ptr %retval, align 8
  store i32 1, ptr %cleanup.dest.slot, align 4
  br label %cleanup14

if.end:                                           ; preds = %entry
  call void @llvm.lifetime.start.p0(i64 8, ptr %postDF) #9
  %6 = load ptr, ptr %curveState.addr, align 8, !tbaa !3
  %before_2 = getelementptr inbounds nuw %"class.QuantLib::MarketModelDiscounter", ptr %this1, i32 0, i32 0
  %7 = load i64, ptr %before_2, align 8, !tbaa !9
  %add = add i64 %7, 1
  %8 = load i64, ptr %numeraire.addr, align 8, !tbaa !17
  %vtable3 = load ptr, ptr %6, align 8, !tbaa !18
  %vfn4 = getelementptr inbounds ptr, ptr %vtable3, i64 2
  %9 = load ptr, ptr %vfn4, align 8
  %call5 = call noundef double %9(ptr noundef nonnull align 8 dereferenceable(64) %6, i64 noundef %add, i64 noundef %8)
  store double %call5, ptr %postDF, align 8, !tbaa !7
  %beforeWeight_6 = getelementptr inbounds nuw %"class.QuantLib::MarketModelDiscounter", ptr %this1, i32 0, i32 1
  %10 = load double, ptr %beforeWeight_6, align 8, !tbaa !12
  %cmp7 = fcmp oeq double %10, 0.000000e+00
  br i1 %cmp7, label %if.then8, label %if.end9

if.then8:                                         ; preds = %if.end
  %11 = load double, ptr %postDF, align 8, !tbaa !7
  store double %11, ptr %retval, align 8
  store i32 1, ptr %cleanup.dest.slot, align 4
  br label %cleanup

if.end9:                                          ; preds = %if.end
  %12 = load double, ptr %preDF, align 8, !tbaa !7
  %beforeWeight_10 = getelementptr inbounds nuw %"class.QuantLib::MarketModelDiscounter", ptr %this1, i32 0, i32 1
  %13 = load double, ptr %beforeWeight_10, align 8, !tbaa !12
  %call11 = call double @pow(double noundef %12, double noundef %13) #9, !tbaa !20
  %14 = load double, ptr %postDF, align 8, !tbaa !7
  %beforeWeight_12 = getelementptr inbounds nuw %"class.QuantLib::MarketModelDiscounter", ptr %this1, i32 0, i32 1
  %15 = load double, ptr %beforeWeight_12, align 8, !tbaa !12
  %sub = fsub double 1.000000e+00, %15
  %call13 = call double @pow(double noundef %14, double noundef %sub) #9, !tbaa !20
  %mul = fmul double %call11, %call13
  store double %mul, ptr %retval, align 8
  store i32 1, ptr %cleanup.dest.slot, align 4
  br label %cleanup

cleanup:                                          ; preds = %if.end9, %if.then8
  call void @llvm.lifetime.end.p0(i64 8, ptr %postDF) #9
  br label %cleanup14

cleanup14:                                        ; preds = %cleanup, %if.then
  call void @llvm.lifetime.end.p0(i64 8, ptr %preDF) #9
  %16 = load double, ptr %retval, align 8
  ret double %16
}