; Function Attrs: mustprogress uwtable
define noundef double @_ZNK8QuantLib21MarketModelDiscounter14numeraireBondsERKNS_10CurveStateEm(ptr nocapture noundef nonnull readonly align 8 dereferenceable(16) %this, ptr noundef nonnull align 8 dereferenceable(64) %curveState, i64 noundef %numeraire) local_unnamed_addr #0 align 2 {
entry:
  %0 = load i64, ptr %this, align 8, !tbaa !14
  %vtable = load ptr, ptr %curveState, align 8, !tbaa !15
  %vfn = getelementptr inbounds i8, ptr %vtable, i64 16
  %1 = load ptr, ptr %vfn, align 8
  %call = tail call noundef double %1(ptr noundef nonnull align 8 dereferenceable(64) %curveState, i64 noundef %0, i64 noundef %numeraire)
  %beforeWeight_ = getelementptr inbounds nuw i8, ptr %this, i64 8
  %2 = load double, ptr %beforeWeight_, align 8, !tbaa !11
  %cmp = fcmp oeq double %2, 1.000000e+00
  br i1 %cmp, label %cleanup14, label %if.end

if.end:                                           ; preds = %entry
  %3 = load i64, ptr %this, align 8, !tbaa !14
  %add = add i64 %3, 1
  %vtable3 = load ptr, ptr %curveState, align 8, !tbaa !15
  %vfn4 = getelementptr inbounds i8, ptr %vtable3, i64 16
  %4 = load ptr, ptr %vfn4, align 8
  %call5 = tail call noundef double %4(ptr noundef nonnull align 8 dereferenceable(64) %curveState, i64 noundef %add, i64 noundef %numeraire)
  %5 = load double, ptr %beforeWeight_, align 8, !tbaa !11
  %cmp7 = fcmp oeq double %5, 0.000000e+00
  br i1 %cmp7, label %cleanup14, label %if.end9

if.end9:                                          ; preds = %if.end
  %call11 = tail call double @pow(double noundef %call, double noundef %5) #4, !tbaa !17
  %sub = fsub double 1.000000e+00, %5
  %call13 = tail call double @pow(double noundef %call5, double noundef %sub) #4, !tbaa !17
  %mul = fmul double %call11, %call13
  br label %cleanup14

cleanup14:                                        ; preds = %if.end9, %if.end, %entry
  %retval.0 = phi double [ %call, %entry ], [ %mul, %if.end9 ], [ %call5, %if.end ]
  ret double %retval.0
}